Certificate:
    Data:
        Version: 3 (0x2)
        Serial Number: 1 (0x1)
        Signature Algorithm: ecdsa-with-SHA256
        Issuer: C=UZ, ST=Tashkent, L=Tashkent, O=strangebit, OU=IT, CN=Root_CA/emailAddress=dmitriy.kuptsov@gmail.com
        Validity
            Not Before: May  8 16:53:14 2024 GMT
            Not After : May  8 16:53:14 2025 GMT
        Subject: C=UZ, ST=Tashkent, L=Tashkent, O=strangebit, OU=IT, CN=strangebit.com/emailAddress=dmitriy.kuptsov@gmail.com
        Subject Public Key Info:
            Public Key Algorithm: id-ecPublicKey
                Public-Key: (256 bit)
                pub:
                    04:0b:75:fe:23:ee:97:36:c0:c6:c9:05:83:d6:46:
                    ce:8e:22:79:ec:aa:96:7d:38:34:fc:98:de:07:b7:
                    6b:92:48:24:e3:7d:98:e0:f9:87:8f:5f:cd:20:29:
                    64:c8:42:a9:1f:69:91:03:7d:b2:67:7e:db:13:ad:
                    12:41:0e:18:ab
                ASN1 OID: prime256v1
                NIST CURVE: P-256
        X509v3 extensions:
            X509v3 Basic Constraints: critical
                CA:FALSE
            X509v3 Subject Key Identifier: 
                41:CF:04:7F:44:C8:4C:A8:A8:B4:D4:1A:BD:CD:EC:3E:3E:E5:14:9D
            X509v3 Authority Key Identifier: 
                keyid:0A:0C:60:D9:40:8E:B6:69:D7:41:91:AF:5E:3F:E4:32:F1:03:8D:D0
                DirName:/C=UZ/ST=Tashkent/L=Tashkent/O=strangebit/OU=IT/CN=Root_CA/emailAddress=dmitriy.kuptsov@gmail.com
                serial:0B:7B:08:8D:2F:B9:C5:24:D6:17:2E:5D:52:30:A1:D2:92:E0:8D:9B

            X509v3 Key Usage: 
                Digital Signature, Non Repudiation, Key Encipherment, Key Agreement
            X509v3 Extended Key Usage: 
                TLS Web Server Authentication
            Authority Information Access: 
                OCSP - URI:http://ocsp:8080

    Signature Algorithm: ecdsa-with-SHA256
         30:46:02:21:00:fc:36:7b:48:b1:f9:f9:cc:f4:5e:02:a1:82:
         3f:fb:ef:b8:fa:5d:87:80:35:3b:e7:17:47:c7:f3:3b:9b:13:
         5b:02:21:00:81:b6:62:00:2c:10:f7:26:8b:8f:fa:f9:79:20:
         17:16:b6:25:80:d1:02:0c:cc:b0:5b:51:43:52:f8:f6:7b:45
-----BEGIN CERTIFICATE-----
MIIDcjCCAxegAwIBAgIBATAKBggqhkjOPQQDAjCBkTELMAkGA1UEBhMCVVoxETAP
BgNVBAgMCFRhc2hrZW50MREwDwYDVQQHDAhUYXNoa2VudDETMBEGA1UECgwKc3Ry
YW5nZWJpdDELMAkGA1UECwwCSVQxEDAOBgNVBAMMB1Jvb3RfQ0ExKDAmBgkqhkiG
9w0BCQEWGWRtaXRyaXkua3VwdHNvdkBnbWFpbC5jb20wHhcNMjQwNTA4MTY1MzE0
WhcNMjUwNTA4MTY1MzE0WjCBmDELMAkGA1UEBhMCVVoxETAPBgNVBAgMCFRhc2hr
ZW50MREwDwYDVQQHDAhUYXNoa2VudDETMBEGA1UECgwKc3RyYW5nZWJpdDELMAkG
A1UECwwCSVQxFzAVBgNVBAMMDnN0cmFuZ2ViaXQuY29tMSgwJgYJKoZIhvcNAQkB
FhlkbWl0cml5Lmt1cHRzb3ZAZ21haWwuY29tMFkwEwYHKoZIzj0CAQYIKoZIzj0D
AQcDQgAEC3X+I+6XNsDGyQWD1kbOjiJ57KqWfTg0/JjeB7drkkgk432Y4PmHj1/N
IClkyEKpH2mRA32yZ37bE60SQQ4Yq6OCAVUwggFRMAwGA1UdEwEB/wQCMAAwHQYD
VR0OBBYEFEHPBH9EyEyoqLTUGr3N7D4+5RSdMIHRBgNVHSMEgckwgcaAFAoMYNlA
jrZp10GRr14/5DLxA43QoYGXpIGUMIGRMQswCQYDVQQGEwJVWjERMA8GA1UECAwI
VGFzaGtlbnQxETAPBgNVBAcMCFRhc2hrZW50MRMwEQYDVQQKDApzdHJhbmdlYml0
MQswCQYDVQQLDAJJVDEQMA4GA1UEAwwHUm9vdF9DQTEoMCYGCSqGSIb3DQEJARYZ
ZG1pdHJpeS5rdXB0c292QGdtYWlsLmNvbYIUC3sIjS+5xSTWFy5dUjCh0pLgjZsw
CwYDVR0PBAQDAgPoMBMGA1UdJQQMMAoGCCsGAQUFBwMBMCwGCCsGAQUFBwEBBCAw
HjAcBggrBgEFBQcwAYYQaHR0cDovL29jc3A6ODA4MDAKBggqhkjOPQQDAgNJADBG
AiEA/DZ7SLH5+cz0XgKhgj/777j6XYeANTvnF0fH8zubE1sCIQCBtmIALBD3JouP
+vl5IBcWtiWA0QIMzLBbUUNS+PZ7RQ==
-----END CERTIFICATE-----
