Certificate:
    Data:
        Version: 3 (0x2)
        Serial Number: 1 (0x1)
        Signature Algorithm: sha256WithRSAEncryption
        Issuer: C=UZ, ST=Tashkent, L=Tashkent, O=strangebit, OU=IT, CN=Root_CA/emailAddress=dmitriy.kuptsov@gmail.com
        Validity
            Not Before: May  8 16:48:01 2024 GMT
            Not After : May  8 16:48:01 2025 GMT
        Subject: C=UZ, ST=Tashkent, L=Tashkent, O=strangebit, OU=IT, CN=strangebit.com/emailAddress=dmitriy.kuptsov@gmail.com
        Subject Public Key Info:
            Public Key Algorithm: rsaEncryption
                RSA Public-Key: (4096 bit)
                Modulus:
                    00:a1:ae:16:5b:81:10:a4:4b:b6:55:d8:9b:fe:4f:
                    1c:42:f4:a5:c5:d5:97:cd:2f:12:81:b4:cf:1f:fc:
                    c8:05:66:90:d7:1a:20:69:ab:da:2e:9b:56:58:4c:
                    0a:ea:18:81:0c:ac:b5:2c:ea:59:dc:ec:aa:fe:3b:
                    cf:7e:a5:38:30:3c:8c:bd:16:61:01:5f:01:54:b3:
                    fd:d6:98:6f:f1:b3:c7:1f:7f:b2:e2:c7:28:ee:b0:
                    c8:f4:5b:fd:4d:81:c1:19:04:57:49:8a:f0:6e:6b:
                    4d:3d:ea:38:00:03:f5:1b:99:0d:b0:a1:f7:63:07:
                    5f:59:2d:13:7d:40:95:80:3b:c7:64:0c:bd:33:23:
                    5a:3a:80:92:fd:d8:52:c1:2c:2a:6e:93:e3:be:8b:
                    54:92:5b:be:1e:22:c9:ce:84:cc:b7:fa:df:04:16:
                    64:fd:7f:98:55:5f:e6:8f:38:6d:46:f6:f3:89:69:
                    07:cc:a9:82:4a:9b:e2:94:1d:37:f5:28:d5:b1:f6:
                    fb:81:02:d8:fc:97:9b:d6:7b:2a:e2:93:28:53:eb:
                    77:ba:7b:96:fd:b4:ef:f2:b9:96:ab:04:fe:91:13:
                    c5:4f:0d:d9:8e:44:ed:a1:e0:2c:9d:c8:b2:53:21:
                    11:0a:09:47:84:67:d6:d9:e0:3b:72:34:0d:4e:8f:
                    b8:42:d6:9b:b0:d9:5d:8f:75:3c:fe:a1:f8:c0:f8:
                    a5:fe:95:12:c2:25:5a:05:eb:c3:51:fa:6c:db:60:
                    71:2d:7b:65:59:07:20:ff:01:e3:a3:56:97:0b:b9:
                    bf:6e:0a:ed:7d:ac:83:9e:a2:73:79:ca:24:27:a3:
                    64:61:b7:11:78:f5:37:a8:1c:71:67:65:10:98:aa:
                    96:c7:5c:82:b5:01:83:08:8d:0d:41:2f:3e:77:83:
                    39:22:95:8e:40:ba:2d:d0:6a:d7:a2:21:5b:a7:3a:
                    ae:7c:71:94:48:6e:60:c4:da:13:64:b5:b4:d8:e1:
                    59:ce:30:9b:58:a3:d0:80:38:40:cc:ab:ea:f5:34:
                    9f:20:2a:fa:72:1d:ea:5c:57:5b:96:ee:c0:4d:85:
                    25:1e:25:fe:c8:c9:51:13:0f:22:e5:94:1c:aa:4b:
                    0f:83:44:fc:68:da:c3:56:32:bd:da:2a:18:2b:b5:
                    e1:50:69:a5:5e:d0:a4:2e:a7:30:b6:d5:87:e2:a7:
                    b9:63:24:fa:6a:9e:58:d9:2d:e5:b7:6d:1e:8b:75:
                    d7:04:0a:29:20:80:31:c9:64:bc:de:da:bf:ea:3e:
                    a8:0f:8f:85:13:e3:ac:94:ce:bd:43:5e:f3:1d:35:
                    26:86:4b:3e:01:21:0f:52:6e:77:e4:a5:36:60:0e:
                    0a:28:93
                Exponent: 65537 (0x10001)
        X509v3 extensions:
            X509v3 Basic Constraints: critical
                CA:FALSE
            X509v3 Subject Key Identifier: 
                AD:47:C3:22:81:B1:62:22:3B:42:C4:2E:22:9C:48:56:8C:77:8B:AE
            X509v3 Authority Key Identifier: 
                keyid:21:4D:D2:D7:09:B5:7B:E4:3F:55:01:A9:49:3E:DF:6B:BD:A5:AF:02
                DirName:/C=UZ/ST=Tashkent/L=Tashkent/O=strangebit/OU=IT/CN=Root_CA/emailAddress=dmitriy.kuptsov@gmail.com
                serial:31:80:09:27:AE:20:36:93:C1:EB:48:84:3C:9D:F8:FF:8D:5F:28:57

            X509v3 Key Usage: 
                Digital Signature, Non Repudiation, Key Encipherment, Key Agreement
            X509v3 Extended Key Usage: 
                TLS Web Server Authentication
            Authority Information Access: 
                OCSP - URI:http://ocsp:8080

    Signature Algorithm: sha256WithRSAEncryption
         7d:54:2d:e5:db:74:fb:a0:16:cc:2b:c6:22:fb:da:6b:b8:d7:
         a3:45:61:b0:23:bb:93:ab:a7:3a:46:66:63:0b:bf:e3:ec:be:
         a6:57:c3:75:7a:d7:49:80:91:40:ab:60:06:83:7b:37:e5:4c:
         29:b3:17:d6:25:e6:98:4f:e5:bc:8e:95:11:a1:6d:a8:1b:1f:
         28:0d:34:10:90:94:ed:83:1c:f4:0e:f3:0f:4f:59:32:b4:d1:
         1f:2e:85:40:85:03:ea:71:b9:16:b7:9e:ea:4d:00:dd:ae:72:
         d1:e8:39:9c:30:bc:3e:72:04:d3:fc:e8:af:d1:8f:17:b5:e9:
         c4:9c:7f:95:d8:e5:53:43:d2:c8:9d:e5:d9:5c:93:9a:93:36:
         42:0c:0c:ec:45:d9:0c:65:66:a9:96:66:90:ce:fa:f7:ad:fe:
         37:8a:0f:ff:11:69:d2:fb:4c:d0:7a:2f:f4:cd:a0:df:21:77:
         be:86:52:ed:1b:06:ab:88:4a:82:0a:4f:94:14:80:dc:e4:fb:
         b3:6b:4e:b7:79:51:83:a4:ce:55:42:52:f9:cc:63:e0:b0:1b:
         ff:9f:88:80:87:13:58:46:f6:32:1c:7e:34:9f:e4:b2:79:45:
         10:09:f3:42:f6:62:16:31:76:4e:ca:27:cf:f2:20:9e:40:5a:
         1d:57:f9:de:93:44:6f:69:0e:bf:ac:42:7b:16:a2:fd:1c:36:
         57:c5:31:fa:79:f6:4d:42:56:d9:70:8f:88:28:e7:ac:b0:7b:
         8d:a1:5d:4c:e2:74:de:60:05:a8:e9:cf:8d:f0:b2:50:fc:66:
         98:30:a4:c8:92:5e:d6:0b:e1:6a:1b:4f:d3:af:b8:7f:12:9b:
         fe:d7:cb:1d:cf:49:5b:4c:77:d5:46:76:00:5b:3a:52:26:9a:
         ef:02:4a:c5:d7:64:c8:ef:a4:85:72:11:b4:0e:6e:5e:48:23:
         1d:c7:b6:46:e2:f1:07:f1:91:f5:7c:3b:fc:59:a9:ef:66:f6:
         f4:92:d9:57:64:7b:10:60:a6:14:0e:5b:97:ec:cb:25:9c:3b:
         7a:e0:df:3c:13:7b:50:32:21:ad:02:32:bd:5c:91:d3:55:68:
         39:77:03:9a:14:c0:b7:cc:2e:22:57:15:f1:2d:db:db:31:8c:
         59:cc:f1:b3:24:16:f0:c4:4f:0e:7c:a3:81:3e:74:5b:34:e8:
         3a:18:a8:08:aa:21:ef:30:39:43:f1:f3:14:7d:b0:f8:f6:25:
         bf:9b:2f:15:f0:7f:fd:bf:42:5b:80:12:4a:a0:6f:da:d1:da:
         89:57:43:70:52:dc:4a:f2:49:f2:0c:33:23:6e:b1:81:2c:e8:
         3e:1f:43:32:a5:fc:4f:2b
-----BEGIN CERTIFICATE-----
MIIG/TCCBOWgAwIBAgIBATANBgkqhkiG9w0BAQsFADCBkTELMAkGA1UEBhMCVVox
ETAPBgNVBAgMCFRhc2hrZW50MREwDwYDVQQHDAhUYXNoa2VudDETMBEGA1UECgwK
c3RyYW5nZWJpdDELMAkGA1UECwwCSVQxEDAOBgNVBAMMB1Jvb3RfQ0ExKDAmBgkq
hkiG9w0BCQEWGWRtaXRyaXkua3VwdHNvdkBnbWFpbC5jb20wHhcNMjQwNTA4MTY0
ODAxWhcNMjUwNTA4MTY0ODAxWjCBmDELMAkGA1UEBhMCVVoxETAPBgNVBAgMCFRh
c2hrZW50MREwDwYDVQQHDAhUYXNoa2VudDETMBEGA1UECgwKc3RyYW5nZWJpdDEL
MAkGA1UECwwCSVQxFzAVBgNVBAMMDnN0cmFuZ2ViaXQuY29tMSgwJgYJKoZIhvcN
AQkBFhlkbWl0cml5Lmt1cHRzb3ZAZ21haWwuY29tMIICIjANBgkqhkiG9w0BAQEF
AAOCAg8AMIICCgKCAgEAoa4WW4EQpEu2Vdib/k8cQvSlxdWXzS8SgbTPH/zIBWaQ
1xogaavaLptWWEwK6hiBDKy1LOpZ3Oyq/jvPfqU4MDyMvRZhAV8BVLP91phv8bPH
H3+y4sco7rDI9Fv9TYHBGQRXSYrwbmtNPeo4AAP1G5kNsKH3YwdfWS0TfUCVgDvH
ZAy9MyNaOoCS/dhSwSwqbpPjvotUklu+HiLJzoTMt/rfBBZk/X+YVV/mjzhtRvbz
iWkHzKmCSpvilB039SjVsfb7gQLY/Jeb1nsq4pMoU+t3unuW/bTv8rmWqwT+kRPF
Tw3ZjkTtoeAsnciyUyERCglHhGfW2eA7cjQNTo+4QtabsNldj3U8/qH4wPil/pUS
wiVaBevDUfps22BxLXtlWQcg/wHjo1aXC7m/bgrtfayDnqJzecokJ6NkYbcRePU3
qBxxZ2UQmKqWx1yCtQGDCI0NQS8+d4M5IpWOQLot0GrXoiFbpzqufHGUSG5gxNoT
ZLW02OFZzjCbWKPQgDhAzKvq9TSfICr6ch3qXFdblu7ATYUlHiX+yMlREw8i5ZQc
qksPg0T8aNrDVjK92ioYK7XhUGmlXtCkLqcwttWH4qe5YyT6ap5Y2S3lt20ei3XX
BAopIIAxyWS83tq/6j6oD4+FE+OslM69Q17zHTUmhks+ASEPUm535KU2YA4KKJMC
AwEAAaOCAVUwggFRMAwGA1UdEwEB/wQCMAAwHQYDVR0OBBYEFK1HwyKBsWIiO0LE
LiKcSFaMd4uuMIHRBgNVHSMEgckwgcaAFCFN0tcJtXvkP1UBqUk+32u9pa8CoYGX
pIGUMIGRMQswCQYDVQQGEwJVWjERMA8GA1UECAwIVGFzaGtlbnQxETAPBgNVBAcM
CFRhc2hrZW50MRMwEQYDVQQKDApzdHJhbmdlYml0MQswCQYDVQQLDAJJVDEQMA4G
A1UEAwwHUm9vdF9DQTEoMCYGCSqGSIb3DQEJARYZZG1pdHJpeS5rdXB0c292QGdt
YWlsLmNvbYIUMYAJJ64gNpPB60iEPJ34/41fKFcwCwYDVR0PBAQDAgPoMBMGA1Ud
JQQMMAoGCCsGAQUFBwMBMCwGCCsGAQUFBwEBBCAwHjAcBggrBgEFBQcwAYYQaHR0
cDovL29jc3A6ODA4MDANBgkqhkiG9w0BAQsFAAOCAgEAfVQt5dt0+6AWzCvGIvva
a7jXo0VhsCO7k6unOkZmYwu/4+y+plfDdXrXSYCRQKtgBoN7N+VMKbMX1iXmmE/l
vI6VEaFtqBsfKA00EJCU7YMc9A7zD09ZMrTRHy6FQIUD6nG5Free6k0A3a5y0eg5
nDC8PnIE0/zor9GPF7XpxJx/ldjlU0PSyJ3l2VyTmpM2QgwM7EXZDGVmqZZmkM76
963+N4oP/xFp0vtM0Hov9M2g3yF3voZS7RsGq4hKggpPlBSA3OT7s2tOt3lRg6TO
VUJS+cxj4LAb/5+IgIcTWEb2Mhx+NJ/ksnlFEAnzQvZiFjF2Tsonz/IgnkBaHVf5
3pNEb2kOv6xCexai/Rw2V8Ux+nn2TUJW2XCPiCjnrLB7jaFdTOJ03mAFqOnPjfCy
UPxmmDCkyJJe1gvhahtP06+4fxKb/tfLHc9JW0x31UZ2AFs6Uiaa7wJKxddkyO+k
hXIRtA5uXkgjHce2RuLxB/GR9Xw7/Fmp72b29JLZV2R7EGCmFA5bl+zLJZw7euDf
PBN7UDIhrQIyvVyR01VoOXcDmhTAt8wuIlcV8S3b2zGMWczxsyQW8MRPDnyjgT50
WzToOhioCKoh7zA5Q/HzFH2w+PYlv5svFfB//b9CW4ASSqBv2tHaiVdDcFLcSvJJ
8gwzI26xgSzoPh9DMqX8Tys=
-----END CERTIFICATE-----
