Certificate:
    Data:
        Version: 3 (0x2)
        Serial Number: 1 (0x1)
        Signature Algorithm: falcon512
        Issuer: C=UZ, ST=Tashkent, L=Tashkent, O=strangebit, OU=IT, CN=Root_CA/emailAddress=dmitriy.kuptsov@gmail.com
        Validity
            Not Before: May  8 16:56:54 2024 GMT
            Not After : May  8 16:56:54 2025 GMT
        Subject: C=UZ, ST=Tashkent, L=Tashkent, O=strangebit, OU=IT, CN=strangebit.com/emailAddress=dmitriy.kuptsov@gmail.com
        Subject Public Key Info:
            Public Key Algorithm: falcon512
                falcon512 Public-Key:
                pub:
                    09:2e:15:98:55:db:8d:b2:17:c8:92:a5:73:ce:47:
                    a3:c5:dc:c1:5e:63:5f:81:36:f6:63:b0:94:e0:61:
                    f1:7d:e7:64:1a:41:5f:28:50:83:40:93:96:32:c9:
                    1d:25:b2:2a:20:3a:e0:70:a6:73:10:55:14:04:6a:
                    64:f6:4e:bc:a0:4a:d1:51:91:da:4f:14:ed:76:39:
                    7e:e3:f0:62:a5:1e:d7:ba:49:db:15:fa:28:f2:f0:
                    8d:84:66:d0:3c:03:8b:2e:bb:82:4e:f3:35:a1:02:
                    12:61:19:a5:1a:92:18:27:30:f9:48:f8:b0:cb:db:
                    52:36:3d:f2:7e:49:e3:ba:6c:d1:80:e8:df:ca:83:
                    c9:b2:eb:01:a2:c5:35:dd:28:ab:6c:57:6f:6e:56:
                    c6:84:4b:e5:bd:89:52:e9:e7:31:81:11:8d:f0:65:
                    d0:2a:a6:dd:9f:64:86:10:c2:a1:01:b7:c9:6f:61:
                    ad:40:ab:ab:78:66:03:ef:ce:b4:67:20:83:40:b4:
                    19:17:19:a5:87:ab:ef:aa:16:85:21:af:45:d0:ea:
                    1c:5a:5a:6c:ca:a1:e0:75:a1:b5:8d:11:90:83:8f:
                    46:4a:5b:d4:85:d3:e3:8f:42:f9:66:f5:08:13:bc:
                    06:b1:09:b7:62:28:62:e2:6b:24:99:99:63:8c:25:
                    5f:b8:98:6f:bc:91:7e:9f:37:52:94:c1:a2:30:8f:
                    6a:a8:5e:03:2d:a6:10:2b:b9:56:93:6d:60:44:99:
                    e4:55:d7:2b:c6:5b:48:88:14:be:8a:7e:69:23:7e:
                    2e:79:41:72:b9:32:6b:81:44:1a:79:2e:55:49:40:
                    d4:10:1e:5a:a5:d8:68:03:7e:be:12:fa:5a:5e:0f:
                    34:08:9d:90:fd:6c:86:a4:ce:d8:29:e8:8f:27:97:
                    a1:f5:d5:51:23:2c:35:c9:d1:d4:19:09:21:a4:2d:
                    0c:8b:e4:6f:fd:55:ea:13:82:0a:5a:d7:30:64:10:
                    f1:f9:e3:38:49:bc:33:19:32:2f:1e:64:52:a0:f0:
                    94:9c:d8:6b:b2:86:4a:86:0d:76:7d:0e:6e:13:45:
                    dd:95:a5:a4:38:77:87:4b:04:10:51:6a:e0:3b:66:
                    10:69:86:eb:89:75:d8:cc:90:5a:53:e7:ec:57:d2:
                    03:4c:46:56:e3:61:8e:55:81:c8:26:66:86:79:b2:
                    cc:eb:02:f5:a9:3c:5a:40:42:89:16:de:6c:13:0e:
                    4f:c8:25:14:27:1e:cc:75:73:e7:eb:60:a7:c2:62:
                    03:ef:d1:be:72:0a:3b:58:44:0d:9e:08:72:9d:b2:
                    7e:63:13:b4:ea:6c:d1:0b:20:34:93:a2:c7:90:c0:
                    86:80:25:52:b8:03:4e:66:1c:02:dd:cb:36:d2:52:
                    4b:39:9c:21:46:62:05:e3:3d:55:a7:60:dd:d2:1e:
                    80:54:42:d6:38:e5:c2:35:19:88:76:d6:87:39:a7:
                    de:d5:42:fd:02:b0:a9:f6:10:56:51:16:10:8d:15:
                    9b:f4:41:09:74:bb:26:a8:56:c0:5e:0e:7d:3e:e2:
                    c0:07:c3:f1:7f:89:37:e3:15:13:d6:af:00:1d:74:
                    86:02:e7:a4:3c:89:0b:48:67:30:65:3d:0a:08:5d:
                    47:1b:b3:39:77:67:e7:66:43:b3:84:f9:f2:0c:4d:
                    ce:55:3d:dd:93:cf:85:5b:55:00:c8:e9:45:01:75:
                    58:4d:d9:a2:f1:e4:2f:12:26:b2:97:02:53:17:bf:
                    1d:cb:1a:ee:93:f5:08:ce:96:15:52:84:32:72:24:
                    59:1a:65:10:75:1b:a1:8d:e2:48:47:c1:6c:b2:57:
                    d7:8a:86:4e:5f:34:2d:97:3a:a8:ff:5a:45:d3:6a:
                    a5:01:35:6b:b2:5c:29:33:ac:08:b7:46:ba:a9:f8:
                    ab:64:a0:dc:f3:82:d7:80:a8:9c:da:17:6a:cd:d9:
                    30:94:cc:0f:b3:1d:a4:56:6d:f6:1a:88:87:94:85:
                    51:66:19:d3:14:5c:60:03:f2:be:41:27:61:04:40:
                    11:83:3b:02:2b:d2:02:09:98:14:45:c9:bb:48:9a:
                    4a:a3:b3:1f:06:ab:ac:82:01:07:d5:11:5f:89:35:
                    f9:29:de:1c:31:8e:28:21:c8:1b:1f:98:82:0d:ab:
                    f4:ee:37:b5:76:bf:72:03:cc:02:20:40:65:82:c7:
                    95:59:5b:59:51:86:6c:4d:55:9c:d5:e4:36:34:cb:
                    3f:78:a6:5e:8a:47:4a:ba:54:d4:0e:b8:24:6e:f0:
                    1e:62:50:47:d8:5e:0c:a2:11:43:e2:a8:2e:e7:3f:
                    02:8e:65:08:1e:83:16:dc:98:d7:b6:5a:c1:a1:ea:
                    c2:a1:76:82:3a:8d:7d:39:bb:b5:68:61
        X509v3 extensions:
            X509v3 Basic Constraints: critical
                CA:FALSE
            X509v3 Subject Key Identifier: 
                6F:83:77:9B:DF:1B:AC:D4:4A:5C:9F:DE:9F:D3:A1:ED:DC:51:F0:F7
            X509v3 Authority Key Identifier: 
                keyid:36:34:D3:D4:13:E4:DA:DF:62:0E:51:6E:FC:0A:E9:50:01:CC:D8:5E
                DirName:/C=UZ/ST=Tashkent/L=Tashkent/O=strangebit/OU=IT/CN=Root_CA/emailAddress=dmitriy.kuptsov@gmail.com
                serial:7B:10:16:5E:97:03:57:B9:2E:5C:1C:7F:EB:64:34:D5:9F:F1:CD:85

            X509v3 Key Usage: 
                Digital Signature, Non Repudiation, Key Encipherment, Key Agreement
            X509v3 Extended Key Usage: 
                TLS Web Server Authentication
            Authority Information Access: 
                OCSP - URI:http://ocsp:8080

    Signature Algorithm: falcon512
         39:48:db:97:a6:04:17:86:fd:9f:b3:89:61:e3:c4:af:72:5e:
         4e:1f:50:13:01:99:7c:a6:80:60:2a:27:5e:bc:7c:19:0c:ac:
         34:be:a7:2b:bb:00:46:86:85:61:ce:30:f9:a6:4b:18:70:e4:
         ea:72:85:25:c4:3e:db:28:a1:28:11:37:67:53:60:d0:b1:62:
         25:45:ff:f2:0e:96:df:e1:0a:98:14:29:0c:a6:7c:8a:e6:a0:
         45:a7:25:c0:88:21:49:22:0f:d2:9e:dd:23:fd:e8:f7:78:97:
         2d:32:28:13:9a:ca:5d:35:0c:3b:95:d3:62:52:45:be:2d:21:
         61:55:07:45:e7:86:44:df:be:0f:b7:0d:a5:34:bc:da:c4:79:
         05:81:fd:7a:ed:21:c2:24:f9:59:cb:90:91:39:78:22:7b:d9:
         a7:52:38:e5:d7:21:56:23:df:72:eb:18:95:c7:b7:bb:a5:23:
         9b:c1:84:b2:28:71:60:33:e8:2c:af:94:62:a7:29:c6:a7:83:
         a4:87:36:15:79:bf:eb:30:bf:b1:db:92:40:40:a3:33:8c:bf:
         33:88:dd:ff:68:71:b4:e9:66:c5:79:fb:3a:83:03:e6:31:31:
         53:1b:23:a5:36:72:e4:3a:45:31:f5:28:eb:a9:14:69:f4:07:
         14:6a:6a:27:7f:d9:9d:8c:54:64:08:a2:4b:c5:de:43:9f:a9:
         1b:81:e9:40:73:75:21:19:3f:8e:7e:4a:91:87:d4:e5:8e:8a:
         1a:cf:e4:0d:c4:a4:85:73:62:d9:9c:19:19:70:38:88:2b:de:
         a9:f2:e1:09:96:7b:59:ef:ed:59:fa:4a:09:46:67:b1:ff:54:
         6a:48:4a:c7:8a:01:ba:6b:67:3c:c7:61:6a:7b:e0:d2:16:c6:
         a5:df:a4:e7:d9:22:a2:41:63:19:0c:ab:d1:9a:9f:35:73:a2:
         8d:7f:d9:32:f2:1e:ed:c7:18:27:77:7b:69:15:9b:6f:29:a7:
         58:d7:4e:e6:54:64:76:f9:86:5f:18:be:ca:e1:c4:e3:f2:d1:
         7f:5a:9a:c7:ba:74:12:15:8d:6f:eb:9b:e5:16:bb:13:43:aa:
         06:c2:c9:4e:48:18:17:06:71:d6:88:cf:d6:0e:e3:6e:e7:9b:
         35:1b:a7:dc:e1:54:e2:86:25:11:4b:31:ec:44:c1:1a:fc:7b:
         95:94:15:38:cc:39:3a:8d:41:f3:da:40:0f:d7:ff:0f:61:4d:
         48:64:15:44:d2:33:91:a6:f6:00:f8:62:a8:e6:be:63:80:52:
         f7:0c:e6:cf:02:61:cb:f5:cf:9a:9a:43:95:24:96:96:eb:4e:
         e3:49:b3:fa:96:b8:97:b9:ff:a3:97:ac:5e:db:b5:89:cd:31:
         59:1a:8c:47:15:2a:41:6e:70:6d:6d:7a:3b:56:53:84:89:3e:
         8a:43:e8:50:7d:5d:7a:c0:e9:ab:10:0e:5e:12:1e:d6:a2:ae:
         2e:4e:5f:93:61:65:ba:89:b7:df:08:34:77:9e:ab:3c:66:9f:
         25:12:a9:3e:fc:d4:e7:8a:52:c6:6f:ab:29:d3:62:c6:58:e3:
         34:74:18:b7:fe:fe:3a:98:93:66:ab:e0:19:c2:22:f0:e0:53:
         08:07:97:49:3a:6e:1b:ff:2e:6a:a3:30:e8:43:19:3e:6a:bf:
         9a:64:13:45:d1:38:d1:6e:75:c7:87:38:54:f3:bf:44:88:60:
         ae:b0:7a:e2:61
-----BEGIN CERTIFICATE-----
MIII6zCCBkygAwIBAgIBATAHBgUrzg8DBjCBkTELMAkGA1UEBhMCVVoxETAPBgNV
BAgMCFRhc2hrZW50MREwDwYDVQQHDAhUYXNoa2VudDETMBEGA1UECgwKc3RyYW5n
ZWJpdDELMAkGA1UECwwCSVQxEDAOBgNVBAMMB1Jvb3RfQ0ExKDAmBgkqhkiG9w0B
CQEWGWRtaXRyaXkua3VwdHNvdkBnbWFpbC5jb20wHhcNMjQwNTA4MTY1NjU0WhcN
MjUwNTA4MTY1NjU0WjCBmDELMAkGA1UEBhMCVVoxETAPBgNVBAgMCFRhc2hrZW50
MREwDwYDVQQHDAhUYXNoa2VudDETMBEGA1UECgwKc3RyYW5nZWJpdDELMAkGA1UE
CwwCSVQxFzAVBgNVBAMMDnN0cmFuZ2ViaXQuY29tMSgwJgYJKoZIhvcNAQkBFhlk
bWl0cml5Lmt1cHRzb3ZAZ21haWwuY29tMIIDjzAHBgUrzg8DBgOCA4IACS4VmFXb
jbIXyJKlc85Ho8XcwV5jX4E29mOwlOBh8X3nZBpBXyhQg0CTljLJHSWyKiA64HCm
cxBVFARqZPZOvKBK0VGR2k8U7XY5fuPwYqUe17pJ2xX6KPLwjYRm0DwDiy67gk7z
NaECEmEZpRqSGCcw+Uj4sMvbUjY98n5J47ps0YDo38qDybLrAaLFNd0oq2xXb25W
xoRL5b2JUunnMYERjfBl0Cqm3Z9khhDCoQG3yW9hrUCrq3hmA+/OtGcgg0C0GRcZ
pYer76oWhSGvRdDqHFpabMqh4HWhtY0RkIOPRkpb1IXT449C+Wb1CBO8BrEJt2Io
YuJrJJmZY4wlX7iYb7yRfp83UpTBojCPaqheAy2mECu5VpNtYESZ5FXXK8ZbSIgU
vop+aSN+LnlBcrkya4FEGnkuVUlA1BAeWqXYaAN+vhL6Wl4PNAidkP1shqTO2Cno
jyeXofXVUSMsNcnR1BkJIaQtDIvkb/1V6hOCClrXMGQQ8fnjOEm8MxkyLx5kUqDw
lJzYa7KGSoYNdn0ObhNF3ZWlpDh3h0sEEFFq4DtmEGmG64l12MyQWlPn7FfSA0xG
VuNhjlWByCZmhnmyzOsC9ak8WkBCiRbebBMOT8glFCcezHVz5+tgp8JiA+/RvnIK
O1hEDZ4Icp2yfmMTtOps0QsgNJOix5DAhoAlUrgDTmYcAt3LNtJSSzmcIUZiBeM9
Vadg3dIegFRC1jjlwjUZiHbWhzmn3tVC/QKwqfYQVlEWEI0Vm/RBCXS7JqhWwF4O
fT7iwAfD8X+JN+MVE9avAB10hgLnpDyJC0hnMGU9CghdRxuzOXdn52ZDs4T58gxN
zlU93ZPPhVtVAMjpRQF1WE3ZovHkLxImspcCUxe/Hcsa7pP1CM6WFVKEMnIkWRpl
EHUboY3iSEfBbLJX14qGTl80LZc6qP9aRdNqpQE1a7JcKTOsCLdGuqn4q2Sg3POC
14ConNoXas3ZMJTMD7MdpFZt9hqIh5SFUWYZ0xRcYAPyvkEnYQRAEYM7AivSAgmY
FEXJu0iaSqOzHwarrIIBB9URX4k1+SneHDGOKCHIGx+Ygg2r9O43tXa/cgPMAiBA
ZYLHlVlbWVGGbE1VnNXkNjTLP3imXopHSrpU1A64JG7wHmJQR9heDKIRQ+KoLuc/
Ao5lCB6DFtyY17ZawaHqwqF2gjqNfTm7tWhho4IBVTCCAVEwDAYDVR0TAQH/BAIw
ADAdBgNVHQ4EFgQUb4N3m98brNRKXJ/en9Oh7dxR8PcwgdEGA1UdIwSByTCBxoAU
NjTT1BPk2t9iDlFu/ArpUAHM2F6hgZekgZQwgZExCzAJBgNVBAYTAlVaMREwDwYD
VQQIDAhUYXNoa2VudDERMA8GA1UEBwwIVGFzaGtlbnQxEzARBgNVBAoMCnN0cmFu
Z2ViaXQxCzAJBgNVBAsMAklUMRAwDgYDVQQDDAdSb290X0NBMSgwJgYJKoZIhvcN
AQkBFhlkbWl0cml5Lmt1cHRzb3ZAZ21haWwuY29tghR7EBZelwNXuS5cHH/rZDTV
n/HNhTALBgNVHQ8EBAMCA+gwEwYDVR0lBAwwCgYIKwYBBQUHAwEwLAYIKwYBBQUH
AQEEIDAeMBwGCCsGAQUFBzABhhBodHRwOi8vb2NzcDo4MDgwMAcGBSvODwMGA4IC
jgA5SNuXpgQXhv2fs4lh48Svcl5OH1ATAZl8poBgKidevHwZDKw0vqcruwBGhoVh
zjD5pksYcOTqcoUlxD7bKKEoETdnU2DQsWIlRf/yDpbf4QqYFCkMpnyK5qBFpyXA
iCFJIg/Snt0j/ej3eJctMigTmspdNQw7ldNiUkW+LSFhVQdF54ZE374Ptw2lNLza
xHkFgf167SHCJPlZy5CROXgie9mnUjjl1yFWI99y6xiVx7e7pSObwYSyKHFgM+gs
r5RipynGp4OkhzYVeb/rML+x25JAQKMzjL8ziN3/aHG06WbFefs6gwPmMTFTGyOl
NnLkOkUx9SjrqRRp9AcUamonf9mdjFRkCKJLxd5Dn6kbgelAc3UhGT+OfkqRh9Tl
jooaz+QNxKSFc2LZnBkZcDiIK96p8uEJlntZ7+1Z+koJRmex/1RqSErHigG6a2c8
x2Fqe+DSFsal36Tn2SKiQWMZDKvRmp81c6KNf9ky8h7txxgnd3tpFZtvKadY107m
VGR2+YZfGL7K4cTj8tF/WprHunQSFY1v65vlFrsTQ6oGwslOSBgXBnHWiM/WDuNu
55s1G6fc4VTihiURSzHsRMEa/HuVlBU4zDk6jUHz2kAP1/8PYU1IZBVE0jORpvYA
+GKo5r5jgFL3DObPAmHL9c+amkOVJJaW607jSbP6lriXuf+jl6xe27WJzTFZGoxH
FSpBbnBtbXo7VlOEiT6KQ+hQfV16wOmrEA5eEh7Woq4uTl+TYWW6ibffCDR3nqs8
Zp8lEqk+/NTnilLGb6sp02LGWOM0dBi3/v46mJNmq+AZwiLw4FMIB5dJOm4b/y5q
ozDoQxk+ar+aZBNF0TjRbnXHhzhU879EiGCusHriYQ==
-----END CERTIFICATE-----
